target datalayout = "e-m:e-p270:32:32-p271:32:32-p272:64:64-i64:64-i128:128-f80:128-n8:16:32:64-S128"
target triple = "x86_64-pc-linux-gnu"

%struct.mbedtls_pk_info_t = type { i32, ptr, ptr, ptr, ptr, ptr, ptr, ptr, ptr, ptr, ptr, ptr }
%struct.mbedtls_pk_context = type { ptr, ptr }

; Function Attrs: mustprogress uwtable
define hidden i32 @mbedtls_pk_can_do(ptr noundef %0, i32 noundef %1) #1 {
  %3 = alloca i32, align 4
  %4 = alloca ptr, align 8
  %5 = alloca i32, align 4
  store ptr %0, ptr %4, align 8, !tbaa !3
  store i32 %1, ptr %5, align 4, !tbaa !16
  %6 = load ptr, ptr %4, align 8, !tbaa !3
  %7 = icmp eq ptr %6, null
  br i1 %7, label %13, label %8

8:                                                ; preds = %2
  %9 = load ptr, ptr %4, align 8, !tbaa !3
  %10 = getelementptr inbounds nuw %struct.mbedtls_pk_context, ptr %9, i32 0, i32 0
  %11 = load ptr, ptr %10, align 8, !tbaa !8
  %12 = icmp eq ptr %11, null
  br i1 %12, label %13, label %14

13:                                               ; preds = %8, %2
  store i32 0, ptr %3, align 4
  br label %22

14:                                               ; preds = %8
  %15 = load ptr, ptr %4, align 8, !tbaa !3
  %16 = getelementptr inbounds nuw %struct.mbedtls_pk_context, ptr %15, i32 0, i32 0
  %17 = load ptr, ptr %16, align 8, !tbaa !8
  %18 = getelementptr inbounds nuw %struct.mbedtls_pk_info_t, ptr %17, i32 0, i32 3
  %19 = load ptr, ptr %18, align 8, !tbaa !19
  %20 = load i32, ptr %5, align 4, !tbaa !16
  %21 = call noundef i32 %19(i32 noundef %20)
  store i32 %21, ptr %3, align 4
  br label %22

22:                                               ; preds = %14, %13
  %23 = load i32, ptr %3, align 4
  ret i32 %23
}